target datalayout = "e-m:e-p270:32:32-p271:32:32-p272:64:64-i64:64-i128:128-f80:128-n8:16:32:64-S128"
target triple = "x86_64-pc-linux-gnu"

; Function Attrs: mustprogress uwtable
define hidden void @_ZN12CFrmSettings18qt_static_metacallEP7QObjectN11QMetaObject4CallEiPPv(ptr noundef %0, i32 noundef %1, i32 noundef %2, ptr noundef %3) #0 align 2 {
  %5 = alloca ptr, align 8
  %6 = alloca i32, align 4
  %7 = alloca i32, align 4
  %8 = alloca ptr, align 8
  %9 = alloca ptr, align 8
  store ptr %0, ptr %5, align 8
  store i32 %1, ptr %6, align 4
  store i32 %2, ptr %7, align 4
  store ptr %3, ptr %8, align 8
  %10 = load i32, ptr %6, align 4
  %11 = icmp eq i32 %10, 0
  br i1 %11, label %12, label %39

12:                                               ; preds = %4
  %13 = load ptr, ptr %5, align 8
  store ptr %13, ptr %9, align 8
  %14 = load i32, ptr %7, align 4
  switch i32 %14, label %37 [
    i32 0, label %15
    i32 1, label %17
    i32 2, label %19
    i32 3, label %21
    i32 4, label %23
    i32 5, label %25
    i32 6, label %27
    i32 7, label %29
    i32 8, label %31
  ]

15:                                               ; preds = %12
  %16 = load ptr, ptr %9, align 8
  call void @_ZN12CFrmSettings10outputSlotEv(ptr noundef nonnull align 8 dereferenceable(152) %16)
  br label %38

17:                                               ; preds = %12
  %18 = load ptr, ptr %9, align 8
  call void @_ZN12CFrmSettings7addSlotEv(ptr noundef nonnull align 8 dereferenceable(152) %18)
  br label %38

19:                                               ; preds = %12
  %20 = load ptr, ptr %9, align 8
  call void @_ZN12CFrmSettings8helpSlotEv(ptr noundef nonnull align 8 dereferenceable(152) %20)
  br label %38

21:                                               ; preds = %12
  %22 = load ptr, ptr %9, align 8
  call void @_ZN12CFrmSettings10cancelSlotEv(ptr noundef nonnull align 8 dereferenceable(152) %22)
  br label %38

23:                                               ; preds = %12
  %24 = load ptr, ptr %9, align 8
  call void @_ZN12CFrmSettings6okSlotEv(ptr noundef nonnull align 8 dereferenceable(152) %24)
  br label %38

25:                                               ; preds = %12
  %26 = load ptr, ptr %9, align 8
  call void @_ZN12CFrmSettings7newSlotEv(ptr noundef nonnull align 8 dereferenceable(152) %26)
  br label %38

27:                                               ; preds = %12
  %28 = load ptr, ptr %9, align 8
  call void @_ZN12CFrmSettings8openSlotEv(ptr noundef nonnull align 8 dereferenceable(152) %28)
  br label %38

29:                                               ; preds = %12
  %30 = load ptr, ptr %9, align 8
  call void @_ZN12CFrmSettings8saveSlotEv(ptr noundef nonnull align 8 dereferenceable(152) %30)
  br label %38

31:                                               ; preds = %12
  %32 = load ptr, ptr %9, align 8
  %33 = load ptr, ptr %8, align 8
  %34 = getelementptr inbounds ptr, ptr %33, i64 1
  %35 = load ptr, ptr %34, align 8
  %36 = load i32, ptr %35, align 4
  call void @_ZN12CFrmSettings16scopeChangedSlotEi(ptr noundef nonnull align 8 dereferenceable(152) %32, i32 noundef %36)
  br label %38

37:                                               ; preds = %12
  br label %38

38:                                               ; preds = %37, %31, %29, %27, %25, %23, %21, %19, %17, %15
  br label %39

39:                                               ; preds = %38, %4
  ret void
}