; Function Attrs: mustprogress uwtable
define hidden void @_ZN12CFrmSettings18qt_static_metacallEP7QObjectN11QMetaObject4CallEiPPv(ptr noundef %0, i32 noundef %1, i32 noundef %2, ptr nocapture noundef readonly %3) #0 align 2 {
  %5 = icmp eq i32 %1, 0
  br i1 %5, label %6, label %19

6:                                                ; preds = %4
  switch i32 %2, label %19 [
    i32 0, label %7
    i32 1, label %8
    i32 2, label %9
    i32 3, label %10
    i32 4, label %11
    i32 5, label %12
    i32 6, label %13
    i32 7, label %14
    i32 8, label %15
  ]

7:                                                ; preds = %6
  tail call void @_ZN12CFrmSettings10outputSlotEv(ptr noundef nonnull align 8 dereferenceable(152) %0)
  br label %19

8:                                                ; preds = %6
  tail call void @_ZN12CFrmSettings7addSlotEv(ptr noundef nonnull align 8 dereferenceable(152) %0)
  br label %19

9:                                                ; preds = %6
  tail call void @_ZN12CFrmSettings8helpSlotEv(ptr noundef nonnull align 8 dereferenceable(152) %0)
  br label %19

10:                                               ; preds = %6
  tail call void @_ZN12CFrmSettings10cancelSlotEv(ptr noundef nonnull align 8 dereferenceable(152) %0)
  br label %19

11:                                               ; preds = %6
  tail call void @_ZN12CFrmSettings6okSlotEv(ptr noundef nonnull align 8 dereferenceable(152) %0)
  br label %19

12:                                               ; preds = %6
  tail call void @_ZN12CFrmSettings7newSlotEv(ptr noundef nonnull align 8 dereferenceable(152) %0)
  br label %19

13:                                               ; preds = %6
  tail call void @_ZN12CFrmSettings8openSlotEv(ptr noundef nonnull align 8 dereferenceable(152) %0)
  br label %19

14:                                               ; preds = %6
  tail call void @_ZN12CFrmSettings8saveSlotEv(ptr noundef nonnull align 8 dereferenceable(152) %0)
  br label %19

15:                                               ; preds = %6
  %16 = getelementptr inbounds i8, ptr %3, i64 8
  %17 = load ptr, ptr %16, align 8
  %18 = load i32, ptr %17, align 4
  tail call void @_ZN12CFrmSettings16scopeChangedSlotEi(ptr noundef nonnull align 8 dereferenceable(152) %0, i32 noundef %18)
  br label %19

19:                                               ; preds = %7, %8, %9, %10, %11, %12, %13, %14, %15, %6, %4
  ret void
}